target datalayout = "e-m:e-p270:32:32-p271:32:32-p272:64:64-i64:64-i128:128-f80:128-n8:16:32:64-S128"
target triple = "x86_64-pc-linux-gnu"

@scan8 = internal constant [51 x i8] c"\0C\0D\14\15\0E\0F\16\17\1C\1D$%\1E\1F&'45<=67>?DELMFGNO\\]de^_fglmtunovw\00(P", align 16

; Function Attrs: alwaysinline nounwind willreturn memory(none) uwtable
define internal i32 @av_clip_uintp2_c(i32 noundef %0, i32 noundef %1) #2 {
  %3 = alloca i32, align 4
  %4 = alloca i32, align 4
  %5 = alloca i32, align 4
  store i32 %0, ptr %4, align 4, !tbaa !11
  store i32 %1, ptr %5, align 4, !tbaa !11
  %6 = load i32, ptr %4, align 4, !tbaa !11
  %7 = load i32, ptr %5, align 4, !tbaa !11
  %8 = shl i32 1, %7
  %9 = sub i32 %8, 1
  %10 = xor i32 %9, -1
  %11 = and i32 %6, %10
  %12 = icmp ne i32 %11, 0
  br i1 %12, label %13, label %21

13:                                               ; preds = %2
  %14 = load i32, ptr %4, align 4, !tbaa !11
  %15 = xor i32 %14, -1
  %16 = ashr i32 %15, 31
  %17 = load i32, ptr %5, align 4, !tbaa !11
  %18 = shl i32 1, %17
  %19 = sub i32 %18, 1
  %20 = and i32 %16, %19
  store i32 %20, ptr %3, align 4
  br label %23

21:                                               ; preds = %2
  %22 = load i32, ptr %4, align 4, !tbaa !11
  store i32 %22, ptr %3, align 4
  br label %23

23:                                               ; preds = %21, %13
  %24 = load i32, ptr %3, align 4
  ret i32 %24
}

; Function Attrs: nounwind uwtable
define void @ff_h264_idct8_dc_add_12_c(ptr noundef %0, ptr noundef %1, i32 noundef %2) #0 {
  %4 = alloca ptr, align 8
  %5 = alloca ptr, align 8
  %6 = alloca i32, align 4
  %7 = alloca i32, align 4
  %8 = alloca i32, align 4
  %9 = alloca ptr, align 8
  %10 = alloca ptr, align 8
  %11 = alloca i32, align 4
  store ptr %0, ptr %4, align 8, !tbaa !4
  store ptr %1, ptr %5, align 8, !tbaa !9
  store i32 %2, ptr %6, align 4, !tbaa !11
  call void @llvm.lifetime.start.p0(i64 4, ptr %7) #4
  call void @llvm.lifetime.start.p0(i64 4, ptr %8) #4
  call void @llvm.lifetime.start.p0(i64 8, ptr %9) #4
  %12 = load ptr, ptr %4, align 8, !tbaa !4
  store ptr %12, ptr %9, align 8, !tbaa !9
  call void @llvm.lifetime.start.p0(i64 8, ptr %10) #4
  %13 = load ptr, ptr %5, align 8, !tbaa !9
  store ptr %13, ptr %10, align 8, !tbaa !25
  call void @llvm.lifetime.start.p0(i64 4, ptr %11) #4
  %14 = load ptr, ptr %10, align 8, !tbaa !25
  %15 = getelementptr inbounds i32, ptr %14, i64 0
  %16 = load i32, ptr %15, align 4, !tbaa !11
  %17 = add nsw i32 %16, 32
  %18 = ashr i32 %17, 6
  store i32 %18, ptr %11, align 4, !tbaa !11
  %19 = load ptr, ptr %10, align 8, !tbaa !25
  %20 = getelementptr inbounds i32, ptr %19, i64 0
  store i32 0, ptr %20, align 4, !tbaa !11
  %21 = load i32, ptr %6, align 4, !tbaa !11
  %22 = sext i32 %21 to i64
  %23 = udiv i64 %22, 2
  %24 = trunc i64 %23 to i32
  store i32 %24, ptr %6, align 4, !tbaa !11
  store i32 0, ptr %8, align 4, !tbaa !11
  br label %25

25:                                               ; preds = %55, %3
  %26 = load i32, ptr %8, align 4, !tbaa !11
  %27 = icmp slt i32 %26, 8
  br i1 %27, label %28, label %58

28:                                               ; preds = %25
  store i32 0, ptr %7, align 4, !tbaa !11
  br label %29

29:                                               ; preds = %47, %28
  %30 = load i32, ptr %7, align 4, !tbaa !11
  %31 = icmp slt i32 %30, 8
  br i1 %31, label %32, label %50

32:                                               ; preds = %29
  %33 = load ptr, ptr %9, align 8, !tbaa !9
  %34 = load i32, ptr %7, align 4, !tbaa !11
  %35 = sext i32 %34 to i64
  %36 = getelementptr inbounds i16, ptr %33, i64 %35
  %37 = load i16, ptr %36, align 2, !tbaa !13
  %38 = zext i16 %37 to i32
  %39 = load i32, ptr %11, align 4, !tbaa !11
  %40 = add nsw i32 %38, %39
  %41 = call i32 @av_clip_uintp2_c(i32 noundef %40, i32 noundef 12) #5
  %42 = trunc i32 %41 to i16
  %43 = load ptr, ptr %9, align 8, !tbaa !9
  %44 = load i32, ptr %7, align 4, !tbaa !11
  %45 = sext i32 %44 to i64
  %46 = getelementptr inbounds i16, ptr %43, i64 %45
  store i16 %42, ptr %46, align 2, !tbaa !13
  br label %47

47:                                               ; preds = %32
  %48 = load i32, ptr %7, align 4, !tbaa !11
  %49 = add nsw i32 %48, 1
  store i32 %49, ptr %7, align 4, !tbaa !11
  br label %29, !llvm.loop !91

50:                                               ; preds = %29
  %51 = load i32, ptr %6, align 4, !tbaa !11
  %52 = load ptr, ptr %9, align 8, !tbaa !9
  %53 = sext i32 %51 to i64
  %54 = getelementptr inbounds i16, ptr %52, i64 %53
  store ptr %54, ptr %9, align 8, !tbaa !9
  br label %55

55:                                               ; preds = %50
  %56 = load i32, ptr %8, align 4, !tbaa !11
  %57 = add nsw i32 %56, 1
  store i32 %57, ptr %8, align 4, !tbaa !11
  br label %25, !llvm.loop !92

58:                                               ; preds = %25
  call void @llvm.lifetime.end.p0(i64 4, ptr %11) #4
  call void @llvm.lifetime.end.p0(i64 8, ptr %10) #4
  call void @llvm.lifetime.end.p0(i64 8, ptr %9) #4
  call void @llvm.lifetime.end.p0(i64 4, ptr %8) #4
  call void @llvm.lifetime.end.p0(i64 4, ptr %7) #4
  ret void
}

; Function Attrs: nounwind uwtable
define void @ff_h264_idct8_add4_12_c(ptr noundef %0, ptr noundef %1, ptr noundef %2, i32 noundef %3, ptr noundef %4) #0 {
  %6 = alloca ptr, align 8
  %7 = alloca ptr, align 8
  %8 = alloca ptr, align 8
  %9 = alloca i32, align 4
  %10 = alloca ptr, align 8
  %11 = alloca i32, align 4
  %12 = alloca i32, align 4
  store ptr %0, ptr %6, align 8, !tbaa !4
  store ptr %1, ptr %7, align 8, !tbaa !25
  store ptr %2, ptr %8, align 8, !tbaa !9
  store i32 %3, ptr %9, align 4, !tbaa !11
  store ptr %4, ptr %10, align 8, !tbaa !4
  call void @llvm.lifetime.start.p0(i64 4, ptr %11) #4
  store i32 0, ptr %11, align 4, !tbaa !11
  br label %13

13:                                               ; preds = %73, %5
  %14 = load i32, ptr %11, align 4, !tbaa !11
  %15 = icmp slt i32 %14, 16
  br i1 %15, label %16, label %76

16:                                               ; preds = %13
  call void @llvm.lifetime.start.p0(i64 4, ptr %12) #4
  %17 = load ptr, ptr %10, align 8, !tbaa !4
  %18 = load i32, ptr %11, align 4, !tbaa !11
  %19 = sext i32 %18 to i64
  %20 = getelementptr inbounds [51 x i8], ptr @scan8, i64 0, i64 %19
  %21 = load i8, ptr %20, align 1, !tbaa !17
  %22 = zext i8 %21 to i64
  %23 = getelementptr inbounds nuw i8, ptr %17, i64 %22
  %24 = load i8, ptr %23, align 1, !tbaa !17
  %25 = zext i8 %24 to i32
  store i32 %25, ptr %12, align 4, !tbaa !11
  %26 = load i32, ptr %12, align 4, !tbaa !11
  %27 = icmp ne i32 %26, 0
  br i1 %27, label %28, label %72

28:                                               ; preds = %16
  %29 = load i32, ptr %12, align 4, !tbaa !11
  %30 = icmp eq i32 %29, 1
  br i1 %30, label %31, label %55

31:                                               ; preds = %28
  %32 = load ptr, ptr %8, align 8, !tbaa !9
  %33 = load i32, ptr %11, align 4, !tbaa !11
  %34 = mul nsw i32 %33, 16
  %35 = sext i32 %34 to i64
  %36 = getelementptr inbounds i32, ptr %32, i64 %35
  %37 = load i32, ptr %36, align 4, !tbaa !11
  %38 = icmp ne i32 %37, 0
  br i1 %38, label %39, label %55

39:                                               ; preds = %31
  %40 = load ptr, ptr %6, align 8, !tbaa !4
  %41 = load ptr, ptr %7, align 8, !tbaa !25
  %42 = load i32, ptr %11, align 4, !tbaa !11
  %43 = sext i32 %42 to i64
  %44 = getelementptr inbounds i32, ptr %41, i64 %43
  %45 = load i32, ptr %44, align 4, !tbaa !11
  %46 = sext i32 %45 to i64
  %47 = getelementptr inbounds i8, ptr %40, i64 %46
  %48 = load ptr, ptr %8, align 8, !tbaa !9
  %49 = load i32, ptr %11, align 4, !tbaa !11
  %50 = mul nsw i32 %49, 16
  %51 = sext i32 %50 to i64
  %52 = mul i64 %51, 2
  %53 = getelementptr inbounds nuw i16, ptr %48, i64 %52
  %54 = load i32, ptr %9, align 4, !tbaa !11
  call void @ff_h264_idct8_dc_add_12_c(ptr noundef %47, ptr noundef %53, i32 noundef %54)
  br label %71

55:                                               ; preds = %31, %28
  %56 = load ptr, ptr %6, align 8, !tbaa !4
  %57 = load ptr, ptr %7, align 8, !tbaa !25
  %58 = load i32, ptr %11, align 4, !tbaa !11
  %59 = sext i32 %58 to i64
  %60 = getelementptr inbounds i32, ptr %57, i64 %59
  %61 = load i32, ptr %60, align 4, !tbaa !11
  %62 = sext i32 %61 to i64
  %63 = getelementptr inbounds i8, ptr %56, i64 %62
  %64 = load ptr, ptr %8, align 8, !tbaa !9
  %65 = load i32, ptr %11, align 4, !tbaa !11
  %66 = mul nsw i32 %65, 16
  %67 = sext i32 %66 to i64
  %68 = mul i64 %67, 2
  %69 = getelementptr inbounds nuw i16, ptr %64, i64 %68
  %70 = load i32, ptr %9, align 4, !tbaa !11
  call void @ff_h264_idct8_add_12_c(ptr noundef %63, ptr noundef %69, i32 noundef %70)
  br label %71

71:                                               ; preds = %55, %39
  br label %72

72:                                               ; preds = %71, %16
  call void @llvm.lifetime.end.p0(i64 4, ptr %12) #4
  br label %73

73:                                               ; preds = %72
  %74 = load i32, ptr %11, align 4, !tbaa !11
  %75 = add nsw i32 %74, 4
  store i32 %75, ptr %11, align 4, !tbaa !11
  br label %13, !llvm.loop !95

76:                                               ; preds = %13
  call void @llvm.lifetime.end.p0(i64 4, ptr %11) #4
  ret void
}